; ModuleID = '27/1997.c'
source_filename = "27/1997.c"
target datalayout = "e-m:e-p270:32:32-p271:32:32-p272:64:64-i64:64-f80:128-n8:16:32:64-S128"
target triple = "x86_64-pc-linux-gnu"

@.str = private unnamed_addr constant [3 x i8] c"%d\00", align 1
@.str.1 = private unnamed_addr constant [10 x i8] c"%lf%lf%lf\00", align 1
@.str.2 = private unnamed_addr constant [19 x i8] c"x1=%.5lf;x2=%.5lf\0A\00", align 1
@.str.3 = private unnamed_addr constant [13 x i8] c"x1=x2=%.5lf\0A\00", align 1
@.str.4 = private unnamed_addr constant [17 x i8] c"x1=%.5lf+%.5lfi;\00", align 1
@.str.5 = private unnamed_addr constant [17 x i8] c"x2=%.5lf-%.5lfi\0A\00", align 1

; Function Attrs: noinline nounwind uwtable
define dso_local i32 @main(i32 %0, i8** %1) #0 {
  %3 = alloca i32, align 4
  %4 = alloca i32, align 4
  %5 = alloca i8**, align 8
  %6 = alloca i32, align 4
  %7 = alloca i32, align 4
  %8 = alloca [100 x double], align 16
  %9 = alloca [100 x double], align 16
  %10 = alloca [100 x double], align 16
  %11 = alloca double, align 8
  %12 = alloca double, align 8
  %13 = alloca double, align 8
  %14 = alloca double, align 8
  store i32 0, i32* %3, align 4
  store i32 %0, i32* %4, align 4
  store i8** %1, i8*** %5, align 8
  %15 = call i32 (i8*, ...) @__isoc99_scanf(i8* getelementptr inbounds ([3 x i8], [3 x i8]* @.str, i64 0, i64 0), i32* %6)
  store i32 0, i32* %7, align 4
  br label %16

16:                                               ; preds = %31, %2
  %17 = load i32, i32* %7, align 4
  %18 = load i32, i32* %6, align 4
  %19 = icmp slt i32 %17, %18
  br i1 %19, label %20, label %34

20:                                               ; preds = %16
  %21 = load i32, i32* %7, align 4
  %22 = sext i32 %21 to i64
  %23 = getelementptr inbounds [100 x double], [100 x double]* %8, i64 0, i64 %22
  %24 = load i32, i32* %7, align 4
  %25 = sext i32 %24 to i64
  %26 = getelementptr inbounds [100 x double], [100 x double]* %9, i64 0, i64 %25
  %27 = load i32, i32* %7, align 4
  %28 = sext i32 %27 to i64
  %29 = getelementptr inbounds [100 x double], [100 x double]* %10, i64 0, i64 %28
  %30 = call i32 (i8*, ...) @__isoc99_scanf(i8* getelementptr inbounds ([10 x i8], [10 x i8]* @.str.1, i64 0, i64 0), double* %23, double* %26, double* %29)
  br label %31

31:                                               ; preds = %20
  %32 = load i32, i32* %7, align 4
  %33 = add nsw i32 %32, 1
  store i32 %33, i32* %7, align 4
  br label %16

34:                                               ; preds = %16
  store i32 0, i32* %7, align 4
  br label %35

35:                                               ; preds = %213, %34
  %36 = load i32, i32* %7, align 4
  %37 = load i32, i32* %6, align 4
  %38 = icmp slt i32 %36, %37
  br i1 %38, label %39, label %216

39:                                               ; preds = %35
  %40 = load i32, i32* %7, align 4
  %41 = sext i32 %40 to i64
  %42 = getelementptr inbounds [100 x double], [100 x double]* %9, i64 0, i64 %41
  %43 = load double, double* %42, align 8
  %44 = load i32, i32* %7, align 4
  %45 = sext i32 %44 to i64
  %46 = getelementptr inbounds [100 x double], [100 x double]* %9, i64 0, i64 %45
  %47 = load double, double* %46, align 8
  %48 = fmul double %43, %47
  %49 = load i32, i32* %7, align 4
  %50 = sext i32 %49 to i64
  %51 = getelementptr inbounds [100 x double], [100 x double]* %8, i64 0, i64 %50
  %52 = load double, double* %51, align 8
  %53 = fmul double 4.000000e+00, %52
  %54 = load i32, i32* %7, align 4
  %55 = sext i32 %54 to i64
  %56 = getelementptr inbounds [100 x double], [100 x double]* %10, i64 0, i64 %55
  %57 = load double, double* %56, align 8
  %58 = fmul double %53, %57
  %59 = fsub double %48, %58
  %60 = fcmp oge double %59, 0.000000e+00
  br i1 %60, label %61, label %139

61:                                               ; preds = %39
  %62 = load i32, i32* %7, align 4
  %63 = sext i32 %62 to i64
  %64 = getelementptr inbounds [100 x double], [100 x double]* %9, i64 0, i64 %63
  %65 = load double, double* %64, align 8
  %66 = fneg double %65
  %67 = load i32, i32* %7, align 4
  %68 = sext i32 %67 to i64
  %69 = getelementptr inbounds [100 x double], [100 x double]* %9, i64 0, i64 %68
  %70 = load double, double* %69, align 8
  %71 = load i32, i32* %7, align 4
  %72 = sext i32 %71 to i64
  %73 = getelementptr inbounds [100 x double], [100 x double]* %9, i64 0, i64 %72
  %74 = load double, double* %73, align 8
  %75 = fmul double %70, %74
  %76 = load i32, i32* %7, align 4
  %77 = sext i32 %76 to i64
  %78 = getelementptr inbounds [100 x double], [100 x double]* %8, i64 0, i64 %77
  %79 = load double, double* %78, align 8
  %80 = fmul double 4.000000e+00, %79
  %81 = load i32, i32* %7, align 4
  %82 = sext i32 %81 to i64
  %83 = getelementptr inbounds [100 x double], [100 x double]* %10, i64 0, i64 %82
  %84 = load double, double* %83, align 8
  %85 = fmul double %80, %84
  %86 = fsub double %75, %85
  %87 = call double @sqrt(double %86) #3
  %88 = fadd double %66, %87
  %89 = load i32, i32* %7, align 4
  %90 = sext i32 %89 to i64
  %91 = getelementptr inbounds [100 x double], [100 x double]* %8, i64 0, i64 %90
  %92 = load double, double* %91, align 8
  %93 = fmul double 2.000000e+00, %92
  %94 = fdiv double %88, %93
  store double %94, double* %11, align 8
  %95 = load i32, i32* %7, align 4
  %96 = sext i32 %95 to i64
  %97 = getelementptr inbounds [100 x double], [100 x double]* %9, i64 0, i64 %96
  %98 = load double, double* %97, align 8
  %99 = fneg double %98
  %100 = load i32, i32* %7, align 4
  %101 = sext i32 %100 to i64
  %102 = getelementptr inbounds [100 x double], [100 x double]* %9, i64 0, i64 %101
  %103 = load double, double* %102, align 8
  %104 = load i32, i32* %7, align 4
  %105 = sext i32 %104 to i64
  %106 = getelementptr inbounds [100 x double], [100 x double]* %9, i64 0, i64 %105
  %107 = load double, double* %106, align 8
  %108 = fmul double %103, %107
  %109 = load i32, i32* %7, align 4
  %110 = sext i32 %109 to i64
  %111 = getelementptr inbounds [100 x double], [100 x double]* %8, i64 0, i64 %110
  %112 = load double, double* %111, align 8
  %113 = fmul double 4.000000e+00, %112
  %114 = load i32, i32* %7, align 4
  %115 = sext i32 %114 to i64
  %116 = getelementptr inbounds [100 x double], [100 x double]* %10, i64 0, i64 %115
  %117 = load double, double* %116, align 8
  %118 = fmul double %113, %117
  %119 = fsub double %108, %118
  %120 = call double @sqrt(double %119) #3
  %121 = fsub double %99, %120
  %122 = load i32, i32* %7, align 4
  %123 = sext i32 %122 to i64
  %124 = getelementptr inbounds [100 x double], [100 x double]* %8, i64 0, i64 %123
  %125 = load double, double* %124, align 8
  %126 = fmul double 2.000000e+00, %125
  %127 = fdiv double %121, %126
  store double %127, double* %12, align 8
  %128 = load double, double* %11, align 8
  %129 = load double, double* %12, align 8
  %130 = fcmp une double %128, %129
  br i1 %130, label %131, label %135

131:                                              ; preds = %61
  %132 = load double, double* %11, align 8
  %133 = load double, double* %12, align 8
  %134 = call i32 (i8*, ...) @printf(i8* getelementptr inbounds ([19 x i8], [19 x i8]* @.str.2, i64 0, i64 0), double %132, double %133)
  br label %138

135:                                              ; preds = %61
  %136 = load double, double* %11, align 8
  %137 = call i32 (i8*, ...) @printf(i8* getelementptr inbounds ([13 x i8], [13 x i8]* @.str.3, i64 0, i64 0), double %136)
  br label %138

138:                                              ; preds = %135, %131
  br label %139

139:                                              ; preds = %138, %39
  %140 = load i32, i32* %7, align 4
  %141 = sext i32 %140 to i64
  %142 = getelementptr inbounds [100 x double], [100 x double]* %9, i64 0, i64 %141
  %143 = load double, double* %142, align 8
  %144 = load i32, i32* %7, align 4
  %145 = sext i32 %144 to i64
  %146 = getelementptr inbounds [100 x double], [100 x double]* %9, i64 0, i64 %145
  %147 = load double, double* %146, align 8
  %148 = fmul double %143, %147
  %149 = load i32, i32* %7, align 4
  %150 = sext i32 %149 to i64
  %151 = getelementptr inbounds [100 x double], [100 x double]* %8, i64 0, i64 %150
  %152 = load double, double* %151, align 8
  %153 = fmul double 4.000000e+00, %152
  %154 = load i32, i32* %7, align 4
  %155 = sext i32 %154 to i64
  %156 = getelementptr inbounds [100 x double], [100 x double]* %10, i64 0, i64 %155
  %157 = load double, double* %156, align 8
  %158 = fmul double %153, %157
  %159 = fsub double %148, %158
  %160 = fcmp olt double %159, 0.000000e+00
  br i1 %160, label %161, label %212

161:                                              ; preds = %139
  %162 = load i32, i32* %7, align 4
  %163 = sext i32 %162 to i64
  %164 = getelementptr inbounds [100 x double], [100 x double]* %9, i64 0, i64 %163
  %165 = load double, double* %164, align 8
  %166 = fneg double %165
  %167 = load i32, i32* %7, align 4
  %168 = sext i32 %167 to i64
  %169 = getelementptr inbounds [100 x double], [100 x double]* %9, i64 0, i64 %168
  %170 = load double, double* %169, align 8
  %171 = fmul double %166, %170
  %172 = load i32, i32* %7, align 4
  %173 = sext i32 %172 to i64
  %174 = getelementptr inbounds [100 x double], [100 x double]* %8, i64 0, i64 %173
  %175 = load double, double* %174, align 8
  %176 = fmul double 4.000000e+00, %175
  %177 = load i32, i32* %7, align 4
  %178 = sext i32 %177 to i64
  %179 = getelementptr inbounds [100 x double], [100 x double]* %10, i64 0, i64 %178
  %180 = load double, double* %179, align 8
  %181 = fmul double %176, %180
  %182 = fadd double %171, %181
  %183 = call double @sqrt(double %182) #3
  %184 = load i32, i32* %7, align 4
  %185 = sext i32 %184 to i64
  %186 = getelementptr inbounds [100 x double], [100 x double]* %8, i64 0, i64 %185
  %187 = load double, double* %186, align 8
  %188 = fmul double 2.000000e+00, %187
  %189 = fdiv double %183, %188
  store double %189, double* %13, align 8
  %190 = load i32, i32* %7, align 4
  %191 = sext i32 %190 to i64
  %192 = getelementptr inbounds [100 x double], [100 x double]* %9, i64 0, i64 %191
  %193 = load double, double* %192, align 8
  %194 = load i32, i32* %7, align 4
  %195 = sext i32 %194 to i64
  %196 = getelementptr inbounds [100 x double], [100 x double]* %8, i64 0, i64 %195
  %197 = load double, double* %196, align 8
  %198 = fmul double 2.000000e+00, %197
  %199 = fdiv double %193, %198
  store double %199, double* %14, align 8
  %200 = load double, double* %14, align 8
  %201 = fcmp une double %200, 0.000000e+00
  br i1 %201, label %202, label %205

202:                                              ; preds = %161
  %203 = load double, double* %14, align 8
  %204 = fneg double %203
  store double %204, double* %14, align 8
  br label %205

205:                                              ; preds = %202, %161
  %206 = load double, double* %14, align 8
  %207 = load double, double* %13, align 8
  %208 = call i32 (i8*, ...) @printf(i8* getelementptr inbounds ([17 x i8], [17 x i8]* @.str.4, i64 0, i64 0), double %206, double %207)
  %209 = load double, double* %14, align 8
  %210 = load double, double* %13, align 8
  %211 = call i32 (i8*, ...) @printf(i8* getelementptr inbounds ([17 x i8], [17 x i8]* @.str.5, i64 0, i64 0), double %209, double %210)
  br label %212

212:                                              ; preds = %205, %139
  br label %213

213:                                              ; preds = %212
  %214 = load i32, i32* %7, align 4
  %215 = add nsw i32 %214, 1
  store i32 %215, i32* %7, align 4
  br label %35

216:                                              ; preds = %35
  ret i32 0
}

declare dso_local i32 @__isoc99_scanf(i8*, ...) #1

; Function Attrs: nounwind
declare dso_local double @sqrt(double) #2

declare dso_local i32 @printf(i8*, ...) #1


!llvm.module.flags = !{!0}
!llvm.ident = !{!1}

!0 = !{i32 1, !"wchar_size", i32 4}
!1 = !{!"clang version 10.0.0-4ubuntu1 "}
